target datalayout = "e-m:e-p270:32:32-p271:32:32-p272:64:64-i64:64-i128:128-f80:128-n8:16:32:64-S128"
target triple = "x86_64-pc-linux-gnu"

%"class.llvm::IntrusiveRefCntPtr" = type { ptr }
%"class.clang::FileManager" = type { %"class.llvm::RefCountedBase", %"class.llvm::IntrusiveRefCntPtr", %"class.clang::FileSystemOptions", %"class.llvm::SpecificBumpPtrAllocator", %"class.llvm::SpecificBumpPtrAllocator.6", %"class.llvm::DenseMap", %"class.llvm::DenseMap.7", %"class.llvm::SmallVector.10", %"class.llvm::SmallVector.15", %"class.llvm::SmallVector.20", %"class.llvm::StringMap", %"class.llvm::StringMap.23", %"class.std::unique_ptr", %"class.clang::CustomizableOptional", %"class.llvm::DenseMap.26", %"class.llvm::BumpPtrAllocatorImpl", i32, i32, i32, i32, i32, %"class.std::unique_ptr.29" }
%"class.llvm::RefCountedBase" = type { i32 }
%"class.clang::FileSystemOptions" = type { %"class.std::__cxx11::basic_string" }
%"class.std::__cxx11::basic_string" = type { %"struct.std::__cxx11::basic_string<char>::_Alloc_hider", i64, %union.anon }
%"struct.std::__cxx11::basic_string<char>::_Alloc_hider" = type { ptr }
%union.anon = type { i64, [8 x i8] }
%"class.llvm::SpecificBumpPtrAllocator" = type { %"class.llvm::BumpPtrAllocatorImpl" }
%"class.llvm::SpecificBumpPtrAllocator.6" = type { %"class.llvm::BumpPtrAllocatorImpl" }
%"class.llvm::DenseMap" = type <{ ptr, i32, i32, i32, [4 x i8] }>
%"class.llvm::DenseMap.7" = type <{ ptr, i32, i32, i32, [4 x i8] }>
%"class.llvm::SmallVector.10" = type { %"class.llvm::SmallVectorImpl.11", %"struct.llvm::SmallVectorStorage.14" }
%"class.llvm::SmallVectorImpl.11" = type { %"class.llvm::SmallVectorTemplateBase.12" }
%"class.llvm::SmallVectorTemplateBase.12" = type { %"class.llvm::SmallVectorTemplateCommon.13" }
%"class.llvm::SmallVectorTemplateCommon.13" = type { %"class.llvm::SmallVectorBase" }
%"class.llvm::SmallVectorBase" = type { ptr, i32, i32 }
%"struct.llvm::SmallVectorStorage.14" = type { [32 x i8] }
%"class.llvm::SmallVector.15" = type { %"class.llvm::SmallVectorImpl.16", %"struct.llvm::SmallVectorStorage.19" }
%"class.llvm::SmallVectorImpl.16" = type { %"class.llvm::SmallVectorTemplateBase.17" }
%"class.llvm::SmallVectorTemplateBase.17" = type { %"class.llvm::SmallVectorTemplateCommon.18" }
%"class.llvm::SmallVectorTemplateCommon.18" = type { %"class.llvm::SmallVectorBase" }
%"struct.llvm::SmallVectorStorage.19" = type { [32 x i8] }
%"class.llvm::SmallVector.20" = type { %"class.llvm::SmallVectorImpl.16" }
%"class.llvm::StringMap" = type { %"class.llvm::StringMapImpl", %"class.llvm::detail::AllocatorHolder.22" }
%"class.llvm::StringMapImpl" = type { ptr, i32, i32, i32, i32 }
%"class.llvm::detail::AllocatorHolder.22" = type { %"class.llvm::BumpPtrAllocatorImpl" }
%"class.llvm::StringMap.23" = type { %"class.llvm::StringMapImpl", %"class.llvm::detail::AllocatorHolder.22" }
%"class.std::unique_ptr" = type { %"struct.std::__uniq_ptr_data" }
%"struct.std::__uniq_ptr_data" = type { %"class.std::__uniq_ptr_impl" }
%"class.std::__uniq_ptr_impl" = type { %"class.std::tuple" }
%"class.std::tuple" = type { %"struct.std::_Tuple_impl" }
%"struct.std::_Tuple_impl" = type { %"struct.std::_Head_base.25" }
%"struct.std::_Head_base.25" = type { ptr }
%"class.clang::CustomizableOptional" = type { %"class.clang::optional_detail::OptionalStorage" }
%"class.clang::optional_detail::OptionalStorage" = type { %"class.clang::FileMgr::MapEntryOptionalStorage" }
%"class.clang::FileMgr::MapEntryOptionalStorage" = type { %"class.clang::FileEntryRef" }
%"class.clang::FileEntryRef" = type { ptr }
%"class.llvm::DenseMap.26" = type <{ ptr, i32, i32, i32, [4 x i8] }>
%"class.llvm::BumpPtrAllocatorImpl" = type { ptr, ptr, %"class.llvm::SmallVector", %"class.llvm::SmallVector.1", i64, i64 }
%"class.llvm::SmallVector" = type { %"class.llvm::SmallVectorImpl", %"struct.llvm::SmallVectorStorage" }
%"class.llvm::SmallVectorImpl" = type { %"class.llvm::SmallVectorTemplateBase" }
%"class.llvm::SmallVectorTemplateBase" = type { %"class.llvm::SmallVectorTemplateCommon" }
%"class.llvm::SmallVectorTemplateCommon" = type { %"class.llvm::SmallVectorBase" }
%"struct.llvm::SmallVectorStorage" = type { [32 x i8] }
%"class.llvm::SmallVector.1" = type { %"class.llvm::SmallVectorImpl.2" }
%"class.llvm::SmallVectorImpl.2" = type { %"class.llvm::SmallVectorTemplateBase.3" }
%"class.llvm::SmallVectorTemplateBase.3" = type { %"class.llvm::SmallVectorTemplateCommon.4" }
%"class.llvm::SmallVectorTemplateCommon.4" = type { %"class.llvm::SmallVectorBase" }
%"class.std::unique_ptr.29" = type { %"struct.std::__uniq_ptr_data.30" }
%"struct.std::__uniq_ptr_data.30" = type { %"class.std::__uniq_ptr_impl.31" }
%"class.std::__uniq_ptr_impl.31" = type { %"class.std::tuple.32" }
%"class.std::tuple.32" = type { %"struct.std::_Tuple_impl.33" }
%"struct.std::_Tuple_impl.33" = type { %"struct.std::_Head_base.36" }
%"struct.std::_Head_base.36" = type { ptr }
%"class.llvm::StringRef" = type { ptr, i64 }
%"class.std::error_code" = type { i32, ptr }
%"class.llvm::SmallVectorBase.112" = type { ptr, i64, i64 }
%"class.llvm::Twine" = type <{ %"union.llvm::Twine::Child", %"union.llvm::Twine::Child", i8, i8, [6 x i8] }>
%"union.llvm::Twine::Child" = type { %struct.anon }
%struct.anon = type { ptr, i64 }

; Function Attrs: mustprogress nounwind uwtable
define linkonce_odr hidden noundef i64 @_ZNK4llvm9StringRef4sizeEv(ptr noundef nonnull align 8 dereferenceable(16) %0) #0 comdat align 2 {
  %2 = alloca ptr, align 8
  store ptr %0, ptr %2, align 8
  %3 = load ptr, ptr %2, align 8
  %4 = getelementptr inbounds nuw %"class.llvm::StringRef", ptr %3, i32 0, i32 1
  %5 = load i64, ptr %4, align 8
  ret i64 %5
}

; Function Attrs: mustprogress nounwind uwtable
define linkonce_odr hidden noundef ptr @_ZNK4llvm9StringRef4dataEv(ptr noundef nonnull align 8 dereferenceable(16) %0) #0 comdat align 2 {
  %2 = alloca ptr, align 8
  store ptr %0, ptr %2, align 8
  %3 = load ptr, ptr %2, align 8
  %4 = getelementptr inbounds nuw %"class.llvm::StringRef", ptr %3, i32 0, i32 0
  %5 = load ptr, ptr %4, align 8
  ret ptr %5
}

; Function Attrs: mustprogress nounwind uwtable
define linkonce_odr hidden noundef ptr @_ZN4llvm25SmallVectorTemplateCommonIcvE5beginEv(ptr noundef nonnull align 8 dereferenceable(24) %0) #0 comdat align 2 {
  %2 = alloca ptr, align 8
  store ptr %0, ptr %2, align 8
  %3 = load ptr, ptr %2, align 8
  %4 = getelementptr inbounds nuw %"class.llvm::SmallVectorBase.112", ptr %3, i32 0, i32 0
  %5 = load ptr, ptr %4, align 8
  ret ptr %5
}

; Function Attrs: mustprogress nounwind uwtable
define linkonce_odr hidden noundef ptr @_ZNK4llvm18IntrusiveRefCntPtrINS_3vfs10FileSystemEEptEv(ptr noundef nonnull align 8 dereferenceable(8) %0) #0 comdat align 2 {
  %2 = alloca ptr, align 8
  store ptr %0, ptr %2, align 8
  %3 = load ptr, ptr %2, align 8
  %4 = getelementptr inbounds nuw %"class.llvm::IntrusiveRefCntPtr", ptr %3, i32 0, i32 0
  %5 = load ptr, ptr %4, align 8
  ret ptr %5
}

; Function Attrs: mustprogress nounwind uwtable
define linkonce_odr hidden void @_ZN4llvm5TwineC2ERKNS_9StringRefE(ptr noundef nonnull align 8 dereferenceable(34) %0, ptr noundef nonnull align 8 dereferenceable(16) %1) unnamed_addr #0 comdat align 2 {
  %3 = alloca ptr, align 8
  %4 = alloca ptr, align 8
  store ptr %0, ptr %3, align 8
  store ptr %1, ptr %4, align 8
  %5 = load ptr, ptr %3, align 8
  %6 = getelementptr inbounds nuw %"class.llvm::Twine", ptr %5, i32 0, i32 2
  store i8 5, ptr %6, align 8
  %7 = getelementptr inbounds nuw %"class.llvm::Twine", ptr %5, i32 0, i32 3
  store i8 1, ptr %7, align 1
  %8 = load ptr, ptr %4, align 8
  %9 = call noundef ptr @_ZNK4llvm9StringRef4dataEv(ptr noundef nonnull align 8 dereferenceable(16) %8)
  %10 = getelementptr inbounds nuw %"class.llvm::Twine", ptr %5, i32 0, i32 0
  %11 = getelementptr inbounds nuw %struct.anon, ptr %10, i32 0, i32 0
  store ptr %9, ptr %11, align 8
  %12 = load ptr, ptr %4, align 8
  %13 = call noundef i64 @_ZNK4llvm9StringRef4sizeEv(ptr noundef nonnull align 8 dereferenceable(16) %12)
  %14 = getelementptr inbounds nuw %"class.llvm::Twine", ptr %5, i32 0, i32 0
  %15 = getelementptr inbounds nuw %struct.anon, ptr %14, i32 0, i32 1
  store i64 %13, ptr %15, align 8
  ret void
}

; Function Attrs: mustprogress nounwind uwtable
define linkonce_odr hidden void @_ZN4llvm9StringRefC2EPKcm(ptr noundef nonnull align 8 dereferenceable(16) %0, ptr noundef %1, i64 noundef %2) unnamed_addr #0 comdat align 2 {
  %4 = alloca ptr, align 8
  %5 = alloca ptr, align 8
  %6 = alloca i64, align 8
  store ptr %0, ptr %4, align 8
  store ptr %1, ptr %5, align 8
  store i64 %2, ptr %6, align 8
  %7 = load ptr, ptr %4, align 8
  %8 = getelementptr inbounds nuw %"class.llvm::StringRef", ptr %7, i32 0, i32 0
  %9 = load ptr, ptr %5, align 8
  store ptr %9, ptr %8, align 8
  %10 = getelementptr inbounds nuw %"class.llvm::StringRef", ptr %7, i32 0, i32 1
  %11 = load i64, ptr %6, align 8
  store i64 %11, ptr %10, align 8
  ret void
}

; Function Attrs: mustprogress nounwind uwtable
define linkonce_odr hidden noundef ptr @_ZN4llvm25SmallVectorTemplateCommonIcvE4dataEv(ptr noundef nonnull align 8 dereferenceable(24) %0) #0 comdat align 2 {
  %2 = alloca ptr, align 8
  store ptr %0, ptr %2, align 8
  %3 = load ptr, ptr %2, align 8
  %4 = call noundef ptr @_ZN4llvm25SmallVectorTemplateCommonIcvE5beginEv(ptr noundef nonnull align 8 dereferenceable(24) %3)
  ret ptr %4
}

; Function Attrs: mustprogress nounwind uwtable
define dso_local noundef zeroext i1 @_ZNK5clang11FileManager16makeAbsolutePathERN4llvm15SmallVectorImplIcEE(ptr noundef nonnull align 8 dereferenceable(808) %0, ptr noundef nonnull align 8 dereferenceable(24) %1) #0 align 2 {
  %3 = alloca ptr, align 8
  %4 = alloca ptr, align 8
  %5 = alloca i8, align 1
  %6 = alloca %"class.llvm::Twine", align 8
  %7 = alloca %"class.llvm::StringRef", align 8
  %8 = alloca %"class.std::error_code", align 8
  store ptr %0, ptr %3, align 8
  store ptr %1, ptr %4, align 8
  %9 = load ptr, ptr %3, align 8
  %10 = load ptr, ptr %4, align 8
  %11 = call noundef zeroext i1 @_ZNK5clang11FileManager17FixupRelativePathERN4llvm15SmallVectorImplIcEE(ptr noundef nonnull align 8 dereferenceable(808) %9, ptr noundef nonnull align 8 dereferenceable(24) %10)
  %12 = zext i1 %11 to i8
  store i8 %12, ptr %5, align 1
  %13 = load ptr, ptr %4, align 8
  %14 = call noundef ptr @_ZN4llvm25SmallVectorTemplateCommonIcvE4dataEv(ptr noundef nonnull align 8 dereferenceable(24) %13)
  %15 = load ptr, ptr %4, align 8
  %16 = call noundef i64 @_ZNK4llvm15SmallVectorBaseImE4sizeEv(ptr noundef nonnull align 8 dereferenceable(24) %15)
  call void @_ZN4llvm9StringRefC2EPKcm(ptr noundef nonnull align 8 dereferenceable(16) %7, ptr noundef %14, i64 noundef %16)
  call void @_ZN4llvm5TwineC2ERKNS_9StringRefE(ptr noundef nonnull align 8 dereferenceable(34) %6, ptr noundef nonnull align 8 dereferenceable(16) %7)
  %17 = call noundef zeroext i1 @_ZN4llvm3sys4path11is_absoluteERKNS_5TwineENS1_5StyleE(ptr noundef nonnull align 8 dereferenceable(34) %6, i32 noundef 0)
  %18 = xor i1 %17, true
  br i1 %18, label %19, label %31

19:                                               ; preds = %2
  %20 = getelementptr inbounds nuw %"class.clang::FileManager", ptr %9, i32 0, i32 1
  %21 = call noundef ptr @_ZNK4llvm18IntrusiveRefCntPtrINS_3vfs10FileSystemEEptEv(ptr noundef nonnull align 8 dereferenceable(8) %20)
  %22 = load ptr, ptr %4, align 8
  %23 = load ptr, ptr %21, align 8
  %24 = getelementptr inbounds ptr, ptr %23, i64 13
  %25 = load ptr, ptr %24, align 8
  %26 = call { i32, ptr } %25(ptr noundef nonnull align 8 dereferenceable(12) %21, ptr noundef nonnull align 8 dereferenceable(24) %22)
  %27 = getelementptr inbounds nuw { i32, ptr }, ptr %8, i32 0, i32 0
  %28 = extractvalue { i32, ptr } %26, 0
  store i32 %28, ptr %27, align 8
  %29 = getelementptr inbounds nuw { i32, ptr }, ptr %8, i32 0, i32 1
  %30 = extractvalue { i32, ptr } %26, 1
  store ptr %30, ptr %29, align 8
  store i8 1, ptr %5, align 1
  br label %31

31:                                               ; preds = %19, %2
  %32 = load i8, ptr %5, align 1
  %33 = trunc i8 %32 to i1
  ret i1 %33
}