; Function Attrs: mustprogress nounwind uwtable
define dso_local noundef zeroext i1 @_ZNK5clang11FileManager16makeAbsolutePathERN4llvm15SmallVectorImplIcEE(ptr noundef nonnull align 8 dereferenceable(808) %0, ptr noundef nonnull align 8 dereferenceable(24) %1) local_unnamed_addr #0 align 2 {
  %3 = alloca %"class.llvm::Twine", align 8
  %4 = tail call noundef zeroext i1 @_ZNK5clang11FileManager17FixupRelativePathERN4llvm15SmallVectorImplIcEE(ptr noundef nonnull align 8 dereferenceable(808) %0, ptr noundef nonnull align 8 dereferenceable(24) %1)
  %5 = load ptr, ptr %1, align 8
  %6 = tail call noundef i64 @_ZNK4llvm15SmallVectorBaseImE4sizeEv(ptr noundef nonnull align 8 dereferenceable(24) %1) #17
  %7 = getelementptr inbounds nuw i8, ptr %3, i64 32
  store i8 5, ptr %7, align 8
  %8 = getelementptr inbounds nuw i8, ptr %3, i64 33
  store i8 1, ptr %8, align 1
  store ptr %5, ptr %3, align 8
  %9 = getelementptr inbounds nuw i8, ptr %3, i64 8
  store i64 %6, ptr %9, align 8
  %10 = call noundef zeroext i1 @_ZN4llvm3sys4path11is_absoluteERKNS_5TwineENS1_5StyleE(ptr noundef nonnull align 8 dereferenceable(34) %3, i32 noundef 0) #17
  br i1 %10, label %18, label %11

11:                                               ; preds = %2
  %12 = getelementptr inbounds nuw i8, ptr %0, i64 8
  %13 = load ptr, ptr %12, align 8
  %14 = load ptr, ptr %13, align 8
  %15 = getelementptr inbounds i8, ptr %14, i64 104
  %16 = load ptr, ptr %15, align 8
  %17 = call { i32, ptr } %16(ptr noundef nonnull align 8 dereferenceable(12) %13, ptr noundef nonnull align 8 dereferenceable(24) %1) #17
  br label %18

18:                                               ; preds = %11, %2
  %.0 = phi i1 [ true, %11 ], [ %4, %2 ]
  ret i1 %.0
}